target datalayout = "e-m:e-p270:32:32-p271:32:32-p272:64:64-i64:64-i128:128-f80:128-n8:16:32:64-S128"
target triple = "x86_64-pc-linux-gnu"

%"class.absl::synchronization_internal::SemWaiter" = type <{ %union.sem_t, %"struct.std::atomic", [4 x i8] }>
%union.sem_t = type { i64, [24 x i8] }
%"struct.std::atomic" = type { %"struct.std::__atomic_base" }
%"struct.std::__atomic_base" = type { i32 }

@.str = private unnamed_addr constant [143 x i8] c"generated/home/dtcxzyw/WorkSpace/Projects/compilers/llvm-opt-benchmark/bench/abseil-cpp/abseil-cpp/absl/synchronization/internal/sem_waiter.cc\00", align 1
@.str.4 = private unnamed_addr constant [31 x i8] c"sem_post failed with errno %d\0A\00", align 1

; Function Attrs: mustprogress uwtable
define dso_local void @_ZN4absl24synchronization_internal9SemWaiter4PokeEv(ptr noundef nonnull align 8 dereferenceable(36) %0) #0 align 2 {
  %2 = alloca ptr, align 8
  %3 = alloca ptr, align 8
  store ptr %0, ptr %2, align 8, !tbaa !4
  %4 = load ptr, ptr %2, align 8
  %5 = getelementptr inbounds nuw %"class.absl::synchronization_internal::SemWaiter", ptr %4, i32 0, i32 0
  %6 = call i32 @sem_post(ptr noundef %5) #9
  %7 = icmp ne i32 %6, 0
  br i1 %7, label %8, label %16

8:                                                ; preds = %1
  br label %9

9:                                                ; preds = %8
  call void @llvm.lifetime.start.p0(i64 8, ptr %3) #9
  store ptr getelementptr (i8, ptr @.str, i64 129), ptr %3, align 8, !tbaa !9
  %10 = call ptr @__errno_location() #10
  %11 = load i32, ptr %10, align 4, !tbaa !11
  call void (i32, ptr, i32, ptr, ...) @_ZN4absl16raw_log_internal6RawLogENS_11LogSeverityEPKciS3_z(i32 noundef 3, ptr noundef getelementptr (i8, ptr @.str, i64 129), i32 noundef 114, ptr noundef @.str.4, i32 noundef %11)
  br label %12

12:                                               ; preds = %9
  unreachable

13:                                               ; No predecessors!
  br label %14

14:                                               ; preds = %13
  call void @llvm.lifetime.end.p0(i64 8, ptr %3) #9
  br label %15

15:                                               ; preds = %14
  br label %16

16:                                               ; preds = %15, %1
  ret void
}