; Function Attrs: mustprogress uwtable
define dso_local void @_ZN4absl24synchronization_internal9SemWaiter4PokeEv(ptr noundef nonnull align 8 dereferenceable(36) %0) local_unnamed_addr #0 align 2 {
  %2 = tail call i32 @sem_post(ptr noundef nonnull %0) #5
  %.not = icmp eq i32 %2, 0
  br i1 %.not, label %6, label %3

3:                                                ; preds = %1
  %4 = tail call ptr @__errno_location() #6
  %5 = load i32, ptr %4, align 4, !tbaa !9
  tail call void (i32, ptr, i32, ptr, ...) @_ZN4absl16raw_log_internal6RawLogENS_11LogSeverityEPKciS3_z(i32 noundef 3, ptr noundef nonnull getelementptr inbounds nuw (i8, ptr @.str, i64 129), i32 noundef 114, ptr noundef nonnull @.str.4, i32 noundef %5)
  unreachable

6:                                                ; preds = %1
  ret void
}